target datalayout = "e-m:e-p270:32:32-p271:32:32-p272:64:64-i64:64-i128:128-f80:128-n8:16:32:64-S128"
target triple = "x86_64-pc-linux-gnu"

%struct.CVodeMemRec = type { ptr, double, ptr, ptr, i32, i32, double, double, ptr, i32, i32, ptr, ptr, i32, i32, ptr, i32, i32, double, double, ptr, i32, i32, i32, i32, ptr, ptr, ptr, i32, i32, ptr, ptr, ptr, i32, double, i32, i32, double, ptr, ptr, ptr, i32, ptr, ptr, i32, i32, i32, double, ptr, ptr, ptr, [13 x ptr], ptr, ptr, ptr, ptr, ptr, ptr, ptr, ptr, ptr, [13 x ptr], ptr, ptr, ptr, ptr, [13 x ptr], ptr, ptr, ptr, ptr, ptr, i32, [13 x ptr], ptr, ptr, ptr, ptr, ptr, i32, i32, double, i32, i32, i32, i32, i32, double, double, double, double, double, double, double, double, [14 x double], [6 x double], [13 x double], double, double, double, double, double, double, double, double, i32, double, double, i32, double, double, ptr, i32, i64, i32, i32, i32, double, double, double, double, double, double, double, double, double, double, double, double, i64, i32, i64, i64, i64, i64, i64, i64, i64, i64, i64, ptr, i64, i64, ptr, i64, i64, ptr, i64, i64, i64, i64, i64, i64, i32, double, double, double, i64, i64, i64, i64, i64, i64, ptr, i32, ptr, i32, ptr, i32, ptr, i32, i32, i64, i32, ptr, i32, ptr, ptr, ptr, ptr, ptr, ptr, i32, i32, ptr, ptr, ptr, ptr, ptr, i64, double, i32, i32, i64, double, double, double, i32, i32, double, i32, i32, i32, i32, i32, i32, i32, i32, i32, i32, i32, i32, i32, i32, i32, i32, ptr, i64, i32, [6 x [4 x double]], i32, i64, ptr, i32, ptr, ptr, double, double, double, ptr, ptr, ptr, double, double, i32, i32, i64, ptr, i32, ptr, i32, i32, [13 x double], ptr, ptr, ptr, i32, ptr, i32 }
%struct.CVadjMemRec = type { double, double, i32, i32, double, i32, double, ptr, i32, ptr, i32, ptr, i32, ptr, i64, i64, ptr, i64, i32, ptr, ptr, ptr, ptr, i32, i32, i32, i32, [13 x ptr], [13 x ptr], [13 x double], ptr, ptr }
%struct.CVdtpntMemRec = type { double, ptr }
%struct.CVpolynomialDataMemRec = type { ptr, ptr, i32 }

; Function Attrs: nounwind uwtable
define internal i32 @CVApolynomialMalloc(ptr noundef %0) #0 {
  %2 = alloca i32, align 4
  %3 = alloca ptr, align 8
  %4 = alloca ptr, align 8
  %5 = alloca ptr, align 8
  %6 = alloca ptr, align 8
  %7 = alloca i64, align 8
  %8 = alloca i64, align 8
  %9 = alloca i32, align 4
  %10 = alloca i32, align 4
  store ptr %0, ptr %3, align 8, !tbaa !11
  call void @llvm.lifetime.start.p0(i64 8, ptr %4) #6
  call void @llvm.lifetime.start.p0(i64 8, ptr %5) #6
  call void @llvm.lifetime.start.p0(i64 8, ptr %6) #6
  call void @llvm.lifetime.start.p0(i64 8, ptr %7) #6
  call void @llvm.lifetime.start.p0(i64 8, ptr %8) #6
  store i64 0, ptr %8, align 8, !tbaa !7
  call void @llvm.lifetime.start.p0(i64 4, ptr %9) #6
  store i32 1, ptr %9, align 4, !tbaa !9
  %11 = load ptr, ptr %3, align 8, !tbaa !11
  %12 = getelementptr inbounds nuw %struct.CVodeMemRec, ptr %11, i32 0, i32 248
  %13 = load ptr, ptr %12, align 8, !tbaa !15
  store ptr %13, ptr %4, align 8, !tbaa !13
  %14 = load ptr, ptr %3, align 8, !tbaa !11
  %15 = getelementptr inbounds nuw %struct.CVodeMemRec, ptr %14, i32 0, i32 55
  %16 = load ptr, ptr %15, align 8, !tbaa !55
  %17 = call ptr @N_VClone(ptr noundef %16)
  %18 = load ptr, ptr %4, align 8, !tbaa !13
  %19 = getelementptr inbounds nuw %struct.CVadjMemRec, ptr %18, i32 0, i32 30
  store ptr %17, ptr %19, align 8, !tbaa !56
  %20 = load ptr, ptr %4, align 8, !tbaa !13
  %21 = getelementptr inbounds nuw %struct.CVadjMemRec, ptr %20, i32 0, i32 30
  %22 = load ptr, ptr %21, align 8, !tbaa !56
  %23 = icmp eq ptr %22, null
  br i1 %23, label %24, label %25

24:                                               ; preds = %1
  store i32 0, ptr %2, align 4
  store i32 1, ptr %10, align 4
  br label %177

25:                                               ; preds = %1
  %26 = load ptr, ptr %4, align 8, !tbaa !13
  %27 = getelementptr inbounds nuw %struct.CVadjMemRec, ptr %26, i32 0, i32 25
  %28 = load i32, ptr %27, align 8, !tbaa !44
  %29 = icmp ne i32 %28, 0
  br i1 %29, label %30, label %49

30:                                               ; preds = %25
  %31 = load ptr, ptr %3, align 8, !tbaa !11
  %32 = getelementptr inbounds nuw %struct.CVodeMemRec, ptr %31, i32 0, i32 23
  %33 = load i32, ptr %32, align 8, !tbaa !57
  %34 = load ptr, ptr %3, align 8, !tbaa !11
  %35 = getelementptr inbounds nuw %struct.CVodeMemRec, ptr %34, i32 0, i32 55
  %36 = load ptr, ptr %35, align 8, !tbaa !55
  %37 = call ptr @N_VCloneVectorArray(i32 noundef %33, ptr noundef %36)
  %38 = load ptr, ptr %4, align 8, !tbaa !13
  %39 = getelementptr inbounds nuw %struct.CVadjMemRec, ptr %38, i32 0, i32 31
  store ptr %37, ptr %39, align 8, !tbaa !58
  %40 = load ptr, ptr %4, align 8, !tbaa !13
  %41 = getelementptr inbounds nuw %struct.CVadjMemRec, ptr %40, i32 0, i32 31
  %42 = load ptr, ptr %41, align 8, !tbaa !58
  %43 = icmp eq ptr %42, null
  br i1 %43, label %44, label %48

44:                                               ; preds = %30
  %45 = load ptr, ptr %4, align 8, !tbaa !13
  %46 = getelementptr inbounds nuw %struct.CVadjMemRec, ptr %45, i32 0, i32 30
  %47 = load ptr, ptr %46, align 8, !tbaa !56
  call void @N_VDestroy(ptr noundef %47)
  store i32 0, ptr %2, align 4
  store i32 1, ptr %10, align 4
  br label %177

48:                                               ; preds = %30
  br label %49

49:                                               ; preds = %48, %25
  %50 = load ptr, ptr %4, align 8, !tbaa !13
  %51 = getelementptr inbounds nuw %struct.CVadjMemRec, ptr %50, i32 0, i32 16
  %52 = load ptr, ptr %51, align 8, !tbaa !36
  store ptr %52, ptr %5, align 8, !tbaa !59
  store i64 0, ptr %7, align 8, !tbaa !7
  br label %53

53:                                               ; preds = %112, %49
  %54 = load i64, ptr %7, align 8, !tbaa !7
  %55 = load ptr, ptr %4, align 8, !tbaa !13
  %56 = getelementptr inbounds nuw %struct.CVadjMemRec, ptr %55, i32 0, i32 14
  %57 = load i64, ptr %56, align 8, !tbaa !34
  %58 = icmp sle i64 %54, %57
  br i1 %58, label %59, label %115

59:                                               ; preds = %53
  store ptr null, ptr %6, align 8, !tbaa !80
  %60 = call noalias ptr @malloc(i64 noundef 24) #7
  store ptr %60, ptr %6, align 8, !tbaa !80
  %61 = load ptr, ptr %6, align 8, !tbaa !80
  %62 = icmp eq ptr %61, null
  br i1 %62, label %63, label %65

63:                                               ; preds = %59
  %64 = load i64, ptr %7, align 8, !tbaa !7
  store i64 %64, ptr %8, align 8, !tbaa !7
  store i32 0, ptr %9, align 4, !tbaa !9
  br label %115

65:                                               ; preds = %59
  %66 = load ptr, ptr %3, align 8, !tbaa !11
  %67 = getelementptr inbounds nuw %struct.CVodeMemRec, ptr %66, i32 0, i32 55
  %68 = load ptr, ptr %67, align 8, !tbaa !55
  %69 = call ptr @N_VClone(ptr noundef %68)
  %70 = load ptr, ptr %6, align 8, !tbaa !80
  %71 = getelementptr inbounds nuw %struct.CVpolynomialDataMemRec, ptr %70, i32 0, i32 0
  store ptr %69, ptr %71, align 8, !tbaa !82
  %72 = load ptr, ptr %6, align 8, !tbaa !80
  %73 = getelementptr inbounds nuw %struct.CVpolynomialDataMemRec, ptr %72, i32 0, i32 0
  %74 = load ptr, ptr %73, align 8, !tbaa !82
  %75 = icmp eq ptr %74, null
  br i1 %75, label %76, label %79

76:                                               ; preds = %65
  %77 = load ptr, ptr %6, align 8, !tbaa !80
  call void @free(ptr noundef %77) #6
  store ptr null, ptr %6, align 8, !tbaa !80
  %78 = load i64, ptr %7, align 8, !tbaa !7
  store i64 %78, ptr %8, align 8, !tbaa !7
  store i32 0, ptr %9, align 4, !tbaa !9
  br label %115

79:                                               ; preds = %65
  %80 = load ptr, ptr %4, align 8, !tbaa !13
  %81 = getelementptr inbounds nuw %struct.CVadjMemRec, ptr %80, i32 0, i32 25
  %82 = load i32, ptr %81, align 8, !tbaa !44
  %83 = icmp ne i32 %82, 0
  br i1 %83, label %84, label %105

84:                                               ; preds = %79
  %85 = load ptr, ptr %3, align 8, !tbaa !11
  %86 = getelementptr inbounds nuw %struct.CVodeMemRec, ptr %85, i32 0, i32 23
  %87 = load i32, ptr %86, align 8, !tbaa !57
  %88 = load ptr, ptr %3, align 8, !tbaa !11
  %89 = getelementptr inbounds nuw %struct.CVodeMemRec, ptr %88, i32 0, i32 55
  %90 = load ptr, ptr %89, align 8, !tbaa !55
  %91 = call ptr @N_VCloneVectorArray(i32 noundef %87, ptr noundef %90)
  %92 = load ptr, ptr %6, align 8, !tbaa !80
  %93 = getelementptr inbounds nuw %struct.CVpolynomialDataMemRec, ptr %92, i32 0, i32 1
  store ptr %91, ptr %93, align 8, !tbaa !84
  %94 = load ptr, ptr %6, align 8, !tbaa !80
  %95 = getelementptr inbounds nuw %struct.CVpolynomialDataMemRec, ptr %94, i32 0, i32 1
  %96 = load ptr, ptr %95, align 8, !tbaa !84
  %97 = icmp eq ptr %96, null
  br i1 %97, label %98, label %104

98:                                               ; preds = %84
  %99 = load ptr, ptr %6, align 8, !tbaa !80
  %100 = getelementptr inbounds nuw %struct.CVpolynomialDataMemRec, ptr %99, i32 0, i32 0
  %101 = load ptr, ptr %100, align 8, !tbaa !82
  call void @N_VDestroy(ptr noundef %101)
  %102 = load ptr, ptr %6, align 8, !tbaa !80
  call void @free(ptr noundef %102) #6
  store ptr null, ptr %6, align 8, !tbaa !80
  %103 = load i64, ptr %7, align 8, !tbaa !7
  store i64 %103, ptr %8, align 8, !tbaa !7
  store i32 0, ptr %9, align 4, !tbaa !9
  br label %115

104:                                              ; preds = %84
  br label %105

105:                                              ; preds = %104, %79
  %106 = load ptr, ptr %6, align 8, !tbaa !80
  %107 = load ptr, ptr %5, align 8, !tbaa !59
  %108 = load i64, ptr %7, align 8, !tbaa !7
  %109 = getelementptr inbounds ptr, ptr %107, i64 %108
  %110 = load ptr, ptr %109, align 8, !tbaa !37
  %111 = getelementptr inbounds nuw %struct.CVdtpntMemRec, ptr %110, i32 0, i32 1
  store ptr %106, ptr %111, align 8, !tbaa !67
  br label %112

112:                                              ; preds = %105
  %113 = load i64, ptr %7, align 8, !tbaa !7
  %114 = add nsw i64 %113, 1
  store i64 %114, ptr %7, align 8, !tbaa !7
  br label %53

115:                                              ; preds = %98, %76, %63, %53
  %116 = load i32, ptr %9, align 4, !tbaa !9
  %117 = icmp ne i32 %116, 0
  br i1 %117, label %175, label %118

118:                                              ; preds = %115
  %119 = load ptr, ptr %4, align 8, !tbaa !13
  %120 = getelementptr inbounds nuw %struct.CVadjMemRec, ptr %119, i32 0, i32 30
  %121 = load ptr, ptr %120, align 8, !tbaa !56
  call void @N_VDestroy(ptr noundef %121)
  %122 = load ptr, ptr %4, align 8, !tbaa !13
  %123 = getelementptr inbounds nuw %struct.CVadjMemRec, ptr %122, i32 0, i32 25
  %124 = load i32, ptr %123, align 8, !tbaa !44
  %125 = icmp ne i32 %124, 0
  br i1 %125, label %126, label %133

126:                                              ; preds = %118
  %127 = load ptr, ptr %4, align 8, !tbaa !13
  %128 = getelementptr inbounds nuw %struct.CVadjMemRec, ptr %127, i32 0, i32 31
  %129 = load ptr, ptr %128, align 8, !tbaa !58
  %130 = load ptr, ptr %3, align 8, !tbaa !11
  %131 = getelementptr inbounds nuw %struct.CVodeMemRec, ptr %130, i32 0, i32 23
  %132 = load i32, ptr %131, align 8, !tbaa !57
  call void @N_VDestroyVectorArray(ptr noundef %129, i32 noundef %132)
  br label %133

133:                                              ; preds = %126, %118
  store i64 0, ptr %7, align 8, !tbaa !7
  br label %134

134:                                              ; preds = %171, %133
  %135 = load i64, ptr %7, align 8, !tbaa !7
  %136 = load i64, ptr %8, align 8, !tbaa !7
  %137 = icmp slt i64 %135, %136
  br i1 %137, label %138, label %174

138:                                              ; preds = %134
  %139 = load ptr, ptr %5, align 8, !tbaa !59
  %140 = load i64, ptr %7, align 8, !tbaa !7
  %141 = getelementptr inbounds ptr, ptr %139, i64 %140
  %142 = load ptr, ptr %141, align 8, !tbaa !37
  %143 = getelementptr inbounds nuw %struct.CVdtpntMemRec, ptr %142, i32 0, i32 1
  %144 = load ptr, ptr %143, align 8, !tbaa !67
  store ptr %144, ptr %6, align 8, !tbaa !80
  %145 = load ptr, ptr %6, align 8, !tbaa !80
  %146 = getelementptr inbounds nuw %struct.CVpolynomialDataMemRec, ptr %145, i32 0, i32 0
  %147 = load ptr, ptr %146, align 8, !tbaa !82
  call void @N_VDestroy(ptr noundef %147)
  %148 = load ptr, ptr %4, align 8, !tbaa !13
  %149 = getelementptr inbounds nuw %struct.CVadjMemRec, ptr %148, i32 0, i32 25
  %150 = load i32, ptr %149, align 8, !tbaa !44
  %151 = icmp ne i32 %150, 0
  br i1 %151, label %152, label %159

152:                                              ; preds = %138
  %153 = load ptr, ptr %6, align 8, !tbaa !80
  %154 = getelementptr inbounds nuw %struct.CVpolynomialDataMemRec, ptr %153, i32 0, i32 1
  %155 = load ptr, ptr %154, align 8, !tbaa !84
  %156 = load ptr, ptr %3, align 8, !tbaa !11
  %157 = getelementptr inbounds nuw %struct.CVodeMemRec, ptr %156, i32 0, i32 23
  %158 = load i32, ptr %157, align 8, !tbaa !57
  call void @N_VDestroyVectorArray(ptr noundef %155, i32 noundef %158)
  br label %159

159:                                              ; preds = %152, %138
  %160 = load ptr, ptr %5, align 8, !tbaa !59
  %161 = load i64, ptr %7, align 8, !tbaa !7
  %162 = getelementptr inbounds ptr, ptr %160, i64 %161
  %163 = load ptr, ptr %162, align 8, !tbaa !37
  %164 = getelementptr inbounds nuw %struct.CVdtpntMemRec, ptr %163, i32 0, i32 1
  %165 = load ptr, ptr %164, align 8, !tbaa !67
  call void @free(ptr noundef %165) #6
  %166 = load ptr, ptr %5, align 8, !tbaa !59
  %167 = load i64, ptr %7, align 8, !tbaa !7
  %168 = getelementptr inbounds ptr, ptr %166, i64 %167
  %169 = load ptr, ptr %168, align 8, !tbaa !37
  %170 = getelementptr inbounds nuw %struct.CVdtpntMemRec, ptr %169, i32 0, i32 1
  store ptr null, ptr %170, align 8, !tbaa !67
  br label %171

171:                                              ; preds = %159
  %172 = load i64, ptr %7, align 8, !tbaa !7
  %173 = add nsw i64 %172, 1
  store i64 %173, ptr %7, align 8, !tbaa !7
  br label %134

174:                                              ; preds = %134
  br label %175

175:                                              ; preds = %174, %115
  %176 = load i32, ptr %9, align 4, !tbaa !9
  store i32 %176, ptr %2, align 4
  store i32 1, ptr %10, align 4
  br label %177

177:                                              ; preds = %175, %44, %24
  call void @llvm.lifetime.end.p0(i64 4, ptr %9) #6
  call void @llvm.lifetime.end.p0(i64 8, ptr %8) #6
  call void @llvm.lifetime.end.p0(i64 8, ptr %7) #6
  call void @llvm.lifetime.end.p0(i64 8, ptr %6) #6
  call void @llvm.lifetime.end.p0(i64 8, ptr %5) #6
  call void @llvm.lifetime.end.p0(i64 8, ptr %4) #6
  %178 = load i32, ptr %2, align 4
  ret i32 %178
}